target datalayout = "e-m:e-p270:32:32-p271:32:32-p272:64:64-i64:64-i128:128-f80:128-n8:16:32:64-S128"
target triple = "x86_64-pc-linux-gnu"

%struct.sensor_info = type { ptr, ptr, ptr, ptr }

@hf_ipmi_se_pst_severity = internal global i32 0, align 4
@hf_ipmi_se_pst_previous_state = internal global i32 0, align 4
@ett_ipmi_se_evt_evd_byte2 = internal global i32 0, align 4
@.str.573 = private unnamed_addr constant [12 x i8] c"Unspecified\00", align 1
@.str.649 = private unnamed_addr constant [8 x i8] c"Unknown\00", align 1
@.str.783 = private unnamed_addr constant [12 x i8] c"%s (0x%02x)\00", align 1
@.str.1086 = private unnamed_addr constant [24 x i8] c"Previous state/severity\00", align 1

; Function Attrs: null_pointer_is_valid sspstrong uwtable
define internal zeroext i1 @eti_2_pst_sev(ptr noundef %0, ptr noundef %1, ptr noundef %2, i32 noundef %3, i32 noundef %4, i32 noundef %5) #0 {
  %7 = alloca i1, align 1
  %8 = alloca ptr, align 8
  %9 = alloca ptr, align 8
  %10 = alloca ptr, align 8
  %11 = alloca i32, align 4
  %12 = alloca i32, align 4
  %13 = alloca i32, align 4
  %14 = alloca ptr, align 8
  %15 = alloca i32, align 4
  %16 = alloca ptr, align 8
  %17 = alloca i32, align 4
  store ptr %0, ptr %8, align 8
  store ptr %1, ptr %9, align 8
  store ptr %2, ptr %10, align 8
  store i32 %3, ptr %11, align 4
  store i32 %4, ptr %12, align 4
  store i32 %5, ptr %13, align 4
  call void @llvm.lifetime.start.p0(i64 8, ptr %14) #5
  call void @llvm.lifetime.start.p0(i64 4, ptr %15) #5
  call void @llvm.lifetime.start.p0(i64 8, ptr %16) #5
  %18 = load i32, ptr %11, align 4
  %19 = icmp eq i32 %18, 1
  br i1 %19, label %20, label %49

20:                                               ; preds = %6
  %21 = load ptr, ptr %8, align 8
  %22 = load ptr, ptr %9, align 8
  %23 = load i32, ptr @ett_ipmi_se_evt_evd_byte2, align 4
  %24 = call ptr @proto_tree_add_subtree(ptr noundef %21, ptr noundef %22, i32 noundef 0, i32 noundef 1, i32 noundef %23, ptr noundef null, ptr noundef @.str.1086)
  store ptr %24, ptr %14, align 8
  %25 = load ptr, ptr %14, align 8
  %26 = load i32, ptr @hf_ipmi_se_pst_severity, align 4
  %27 = load ptr, ptr %9, align 8
  %28 = call ptr @proto_tree_add_item(ptr noundef %25, i32 noundef %26, ptr noundef %27, i32 noundef 0, i32 noundef 1, i32 noundef -2147483648)
  %29 = load i32, ptr %13, align 4
  %30 = and i32 %29, 15
  store i32 %30, ptr %15, align 4
  %31 = load i32, ptr %15, align 4
  %32 = icmp eq i32 %31, 15
  br i1 %32, label %33, label %34

33:                                               ; preds = %20
  br label %40

34:                                               ; preds = %20
  %35 = load i32, ptr %15, align 4
  %36 = load ptr, ptr %10, align 8
  %37 = getelementptr inbounds nuw %struct.sensor_info, ptr %36, i32 0, i32 0
  %38 = load ptr, ptr %37, align 8
  %39 = call ptr @val_to_str_const(i32 noundef %35, ptr noundef %38, ptr noundef @.str.649)
  br label %40

40:                                               ; preds = %34, %33
  %41 = phi ptr [ @.str.573, %33 ], [ %39, %34 ]
  store ptr %41, ptr %16, align 8
  %42 = load ptr, ptr %14, align 8
  %43 = load i32, ptr @hf_ipmi_se_pst_previous_state, align 4
  %44 = load ptr, ptr %9, align 8
  %45 = load i32, ptr %15, align 4
  %46 = load ptr, ptr %16, align 8
  %47 = load i32, ptr %15, align 4
  %48 = call ptr (ptr, i32, ptr, i32, i32, i32, ptr, ...) @proto_tree_add_uint_format_value(ptr noundef %42, i32 noundef %43, ptr noundef %44, i32 noundef 0, i32 noundef 1, i32 noundef %45, ptr noundef @.str.783, ptr noundef %46, i32 noundef %47)
  store i1 true, ptr %7, align 1
  store i32 1, ptr %17, align 4
  br label %50

49:                                               ; preds = %6
  store i1 false, ptr %7, align 1
  store i32 1, ptr %17, align 4
  br label %50

50:                                               ; preds = %49, %40
  call void @llvm.lifetime.end.p0(i64 8, ptr %16) #5
  call void @llvm.lifetime.end.p0(i64 4, ptr %15) #5
  call void @llvm.lifetime.end.p0(i64 8, ptr %14) #5
  %51 = load i1, ptr %7, align 1
  ret i1 %51
}